target datalayout = "e-m:e-p270:32:32-p271:32:32-p272:64:64-i64:64-i128:128-f80:128-n8:16:32:64-S128"
target triple = "x86_64-pc-linux-gnu"

%"class.std::__cxx11::basic_string" = type { %"struct.std::__cxx11::basic_string<char>::_Alloc_hider", i64, %union.anon }
%"struct.std::__cxx11::basic_string<char>::_Alloc_hider" = type { ptr }
%union.anon = type { i64, [8 x i8] }
%"class.std::basic_string_view" = type { i64, ptr }
%class.cmFindPackageCommand = type { %class.cmFindCommon, %"class.std::map.35", %"class.std::map.40", %"class.std::__cxx11::basic_string", %"class.std::__cxx11::basic_string", %"class.std::__cxx11::basic_string", %"class.std::__cxx11::basic_string", %"class.std::basic_string_view", %"class.std::basic_string_view", %"class.std::__cxx11::basic_string", i32, i32, i32, i32, i32, %"class.std::__cxx11::basic_string", i32, i32, i32, i32, i32, i8, %"class.std::__cxx11::basic_string", %"class.std::__cxx11::basic_string", i32, i32, i32, i32, i32, i64, i8, i8, i8, i8, i8, i8, i8, i8, i8, i8, i8, i8, i8, %"class.std::__cxx11::basic_string", %"class.std::vector", %"class.std::vector", %"class.std::set.45", %"class.std::set.45", %"class.std::__cxx11::basic_string", i32, i32, %"class.std::vector.50" }
%class.cmFindCommon = type { %"class.std::vector", %"class.std::vector", %"class.std::__cxx11::basic_string", i32, i8, i8, i8, i8, i8, i8, i8, i8, i32, %"class.std::vector", %"class.std::map", %"class.std::vector.8", %"class.std::map.13", %"class.std::map.20", %"class.std::vector", %"class.std::set", i8, i8, i8, i8, i8, i8, ptr, ptr }
%"class.std::map" = type { %"class.std::_Rb_tree" }
%"class.std::_Rb_tree" = type { %"struct.std::_Rb_tree<cmFindCommon::PathGroup, std::pair<const cmFindCommon::PathGroup, std::vector<cmFindCommon::PathLabel>>, std::_Select1st<std::pair<const cmFindCommon::PathGroup, std::vector<cmFindCommon::PathLabel>>>, std::less<cmFindCommon::PathGroup>>::_Rb_tree_impl" }
%"struct.std::_Rb_tree<cmFindCommon::PathGroup, std::pair<const cmFindCommon::PathGroup, std::vector<cmFindCommon::PathLabel>>, std::_Select1st<std::pair<const cmFindCommon::PathGroup, std::vector<cmFindCommon::PathLabel>>>, std::less<cmFindCommon::PathGroup>>::_Rb_tree_impl" = type { %"struct.std::_Rb_tree_key_compare", %"struct.std::_Rb_tree_header" }
%"struct.std::_Rb_tree_key_compare" = type { %"struct.std::less" }
%"struct.std::less" = type { i8 }
%"struct.std::_Rb_tree_header" = type { %"struct.std::_Rb_tree_node_base", i64 }
%"struct.std::_Rb_tree_node_base" = type { i32, ptr, ptr, ptr }
%"class.std::vector.8" = type { %"struct.std::_Vector_base.9" }
%"struct.std::_Vector_base.9" = type { %"struct.std::_Vector_base<cmFindCommon::PathGroup, std::allocator<cmFindCommon::PathGroup>>::_Vector_impl" }
%"struct.std::_Vector_base<cmFindCommon::PathGroup, std::allocator<cmFindCommon::PathGroup>>::_Vector_impl" = type { %"struct.std::_Vector_base<cmFindCommon::PathGroup, std::allocator<cmFindCommon::PathGroup>>::_Vector_impl_data" }
%"struct.std::_Vector_base<cmFindCommon::PathGroup, std::allocator<cmFindCommon::PathGroup>>::_Vector_impl_data" = type { ptr, ptr, ptr }
%"class.std::map.13" = type { %"class.std::_Rb_tree.14" }
%"class.std::_Rb_tree.14" = type { %"struct.std::_Rb_tree<std::__cxx11::basic_string<char>, std::pair<const std::__cxx11::basic_string<char>, cmFindCommon::PathLabel>, std::_Select1st<std::pair<const std::__cxx11::basic_string<char>, cmFindCommon::PathLabel>>, std::less<std::__cxx11::basic_string<char>>>::_Rb_tree_impl" }
%"struct.std::_Rb_tree<std::__cxx11::basic_string<char>, std::pair<const std::__cxx11::basic_string<char>, cmFindCommon::PathLabel>, std::_Select1st<std::pair<const std::__cxx11::basic_string<char>, cmFindCommon::PathLabel>>, std::less<std::__cxx11::basic_string<char>>>::_Rb_tree_impl" = type { %"struct.std::_Rb_tree_key_compare.18", %"struct.std::_Rb_tree_header" }
%"struct.std::_Rb_tree_key_compare.18" = type { %"struct.std::less.19" }
%"struct.std::less.19" = type { i8 }
%"class.std::map.20" = type { %"class.std::_Rb_tree.21" }
%"class.std::_Rb_tree.21" = type { %"struct.std::_Rb_tree<cmFindCommon::PathLabel, std::pair<const cmFindCommon::PathLabel, cmSearchPath>, std::_Select1st<std::pair<const cmFindCommon::PathLabel, cmSearchPath>>, std::less<cmFindCommon::PathLabel>>::_Rb_tree_impl" }
%"struct.std::_Rb_tree<cmFindCommon::PathLabel, std::pair<const cmFindCommon::PathLabel, cmSearchPath>, std::_Select1st<std::pair<const cmFindCommon::PathLabel, cmSearchPath>>, std::less<cmFindCommon::PathLabel>>::_Rb_tree_impl" = type { %"struct.std::_Rb_tree_key_compare.25", %"struct.std::_Rb_tree_header" }
%"struct.std::_Rb_tree_key_compare.25" = type { %"struct.std::less.26" }
%"struct.std::less.26" = type { i8 }
%"class.std::set" = type { %"class.std::_Rb_tree.28" }
%"class.std::_Rb_tree.28" = type { %"struct.std::_Rb_tree<cmSearchPath::PathWithPrefix, cmSearchPath::PathWithPrefix, std::_Identity<cmSearchPath::PathWithPrefix>, std::less<cmSearchPath::PathWithPrefix>>::_Rb_tree_impl" }
%"struct.std::_Rb_tree<cmSearchPath::PathWithPrefix, cmSearchPath::PathWithPrefix, std::_Identity<cmSearchPath::PathWithPrefix>, std::less<cmSearchPath::PathWithPrefix>>::_Rb_tree_impl" = type { %"struct.std::_Rb_tree_key_compare.32", %"struct.std::_Rb_tree_header" }
%"struct.std::_Rb_tree_key_compare.32" = type { %"struct.std::less.33" }
%"struct.std::less.33" = type { i8 }
%"class.std::map.35" = type { %"class.std::_Rb_tree.36" }
%"class.std::_Rb_tree.36" = type { %"struct.std::_Rb_tree<std::__cxx11::basic_string<char>, std::pair<const std::__cxx11::basic_string<char>, cmFindPackageCommand::OriginalDef>, std::_Select1st<std::pair<const std::__cxx11::basic_string<char>, cmFindPackageCommand::OriginalDef>>, std::less<std::__cxx11::basic_string<char>>>::_Rb_tree_impl" }
%"struct.std::_Rb_tree<std::__cxx11::basic_string<char>, std::pair<const std::__cxx11::basic_string<char>, cmFindPackageCommand::OriginalDef>, std::_Select1st<std::pair<const std::__cxx11::basic_string<char>, cmFindPackageCommand::OriginalDef>>, std::less<std::__cxx11::basic_string<char>>>::_Rb_tree_impl" = type { %"struct.std::_Rb_tree_key_compare.18", %"struct.std::_Rb_tree_header" }
%"class.std::map.40" = type { %"class.std::_Rb_tree.41" }
%"class.std::_Rb_tree.41" = type { %"struct.std::_Rb_tree<std::__cxx11::basic_string<char>, std::pair<const std::__cxx11::basic_string<char>, cmPolicies::PolicyID>, std::_Select1st<std::pair<const std::__cxx11::basic_string<char>, cmPolicies::PolicyID>>, std::less<std::__cxx11::basic_string<char>>>::_Rb_tree_impl" }
%"struct.std::_Rb_tree<std::__cxx11::basic_string<char>, std::pair<const std::__cxx11::basic_string<char>, cmPolicies::PolicyID>, std::_Select1st<std::pair<const std::__cxx11::basic_string<char>, cmPolicies::PolicyID>>, std::less<std::__cxx11::basic_string<char>>>::_Rb_tree_impl" = type { %"struct.std::_Rb_tree_key_compare.18", %"struct.std::_Rb_tree_header" }
%"class.std::vector" = type { %"struct.std::_Vector_base" }
%"struct.std::_Vector_base" = type { %"struct.std::_Vector_base<std::__cxx11::basic_string<char>, std::allocator<std::__cxx11::basic_string<char>>>::_Vector_impl" }
%"struct.std::_Vector_base<std::__cxx11::basic_string<char>, std::allocator<std::__cxx11::basic_string<char>>>::_Vector_impl" = type { %"struct.std::_Vector_base<std::__cxx11::basic_string<char>, std::allocator<std::__cxx11::basic_string<char>>>::_Vector_impl_data" }
%"struct.std::_Vector_base<std::__cxx11::basic_string<char>, std::allocator<std::__cxx11::basic_string<char>>>::_Vector_impl_data" = type { ptr, ptr, ptr }
%"class.std::set.45" = type { %"class.std::_Rb_tree.46" }
%"class.std::_Rb_tree.46" = type { %"struct.std::_Rb_tree<std::__cxx11::basic_string<char>, std::__cxx11::basic_string<char>, std::_Identity<std::__cxx11::basic_string<char>>, std::less<std::__cxx11::basic_string<char>>>::_Rb_tree_impl" }
%"struct.std::_Rb_tree<std::__cxx11::basic_string<char>, std::__cxx11::basic_string<char>, std::_Identity<std::__cxx11::basic_string<char>>, std::less<std::__cxx11::basic_string<char>>>::_Rb_tree_impl" = type { %"struct.std::_Rb_tree_key_compare.18", %"struct.std::_Rb_tree_header" }
%"class.std::vector.50" = type { %"struct.std::_Vector_base.51" }
%"struct.std::_Vector_base.51" = type { %"struct.std::_Vector_base<cmFindPackageCommand::ConfigFileInfo, std::allocator<cmFindPackageCommand::ConfigFileInfo>>::_Vector_impl" }
%"struct.std::_Vector_base<cmFindPackageCommand::ConfigFileInfo, std::allocator<cmFindPackageCommand::ConfigFileInfo>>::_Vector_impl" = type { %"struct.std::_Vector_base<cmFindPackageCommand::ConfigFileInfo, std::allocator<cmFindPackageCommand::ConfigFileInfo>>::_Vector_impl_data" }
%"struct.std::_Vector_base<cmFindPackageCommand::ConfigFileInfo, std::allocator<cmFindPackageCommand::ConfigFileInfo>>::_Vector_impl_data" = type { ptr, ptr, ptr }

; Function Attrs: mustprogress uwtable
define dso_local void @_ZN20cmFindPackageCommand15ComputePrefixesEv(ptr noundef nonnull align 8 dereferenceable(1104) %0) #4 align 2 {
  %2 = alloca ptr, align 8
  store ptr %0, ptr %2, align 8
  %3 = load ptr, ptr %2, align 8
  call void @_ZN20cmFindPackageCommand27FillPrefixesPackageRedirectEv(ptr noundef nonnull align 8 dereferenceable(1104) %3)
  %4 = getelementptr inbounds %class.cmFindCommon, ptr %3, i32 0, i32 5
  %5 = load i8, ptr %4, align 1
  %6 = trunc i8 %5 to i1
  br i1 %6, label %23, label %7

7:                                                ; preds = %1
  %8 = getelementptr inbounds %class.cmFindCommon, ptr %3, i32 0, i32 6
  %9 = load i8, ptr %8, align 2
  %10 = trunc i8 %9 to i1
  br i1 %10, label %12, label %11

11:                                               ; preds = %7
  call void @_ZN20cmFindPackageCommand23FillPrefixesPackageRootEv(ptr noundef nonnull align 8 dereferenceable(1104) %3)
  br label %12

12:                                               ; preds = %11, %7
  %13 = getelementptr inbounds %class.cmFindCommon, ptr %3, i32 0, i32 7
  %14 = load i8, ptr %13, align 1
  %15 = trunc i8 %14 to i1
  br i1 %15, label %17, label %16

16:                                               ; preds = %12
  call void @_ZN20cmFindPackageCommand25FillPrefixesCMakeVariableEv(ptr noundef nonnull align 8 dereferenceable(1104) %3)
  br label %17

17:                                               ; preds = %16, %12
  %18 = getelementptr inbounds %class.cmFindCommon, ptr %3, i32 0, i32 8
  %19 = load i8, ptr %18, align 8
  %20 = trunc i8 %19 to i1
  br i1 %20, label %22, label %21

21:                                               ; preds = %17
  call void @_ZN20cmFindPackageCommand28FillPrefixesCMakeEnvironmentEv(ptr noundef nonnull align 8 dereferenceable(1104) %3)
  br label %22

22:                                               ; preds = %21, %17
  br label %23

23:                                               ; preds = %22, %1
  call void @_ZN20cmFindPackageCommand21FillPrefixesUserHintsEv(ptr noundef nonnull align 8 dereferenceable(1104) %3)
  %24 = getelementptr inbounds %class.cmFindCommon, ptr %3, i32 0, i32 5
  %25 = load i8, ptr %24, align 1
  %26 = trunc i8 %25 to i1
  br i1 %26, label %48, label %27

27:                                               ; preds = %23
  %28 = getelementptr inbounds %class.cmFindCommon, ptr %3, i32 0, i32 9
  %29 = load i8, ptr %28, align 1
  %30 = trunc i8 %29 to i1
  br i1 %30, label %32, label %31

31:                                               ; preds = %27
  call void @_ZN20cmFindPackageCommand29FillPrefixesSystemEnvironmentEv(ptr noundef nonnull align 8 dereferenceable(1104) %3)
  br label %32

32:                                               ; preds = %31, %27
  %33 = getelementptr inbounds %class.cmFindPackageCommand, ptr %3, i32 0, i32 34
  %34 = load i8, ptr %33, align 4
  %35 = trunc i8 %34 to i1
  br i1 %35, label %37, label %36

36:                                               ; preds = %32
  call void @_ZN20cmFindPackageCommand24FillPrefixesUserRegistryEv(ptr noundef nonnull align 8 dereferenceable(1104) %3)
  br label %37

37:                                               ; preds = %36, %32
  %38 = getelementptr inbounds %class.cmFindCommon, ptr %3, i32 0, i32 10
  %39 = load i8, ptr %38, align 2
  %40 = trunc i8 %39 to i1
  br i1 %40, label %42, label %41

41:                                               ; preds = %37
  call void @_ZN20cmFindPackageCommand31FillPrefixesCMakeSystemVariableEv(ptr noundef nonnull align 8 dereferenceable(1104) %3)
  br label %42

42:                                               ; preds = %41, %37
  %43 = getelementptr inbounds %class.cmFindPackageCommand, ptr %3, i32 0, i32 35
  %44 = load i8, ptr %43, align 1
  %45 = trunc i8 %44 to i1
  br i1 %45, label %47, label %46

46:                                               ; preds = %42
  call void @_ZN20cmFindPackageCommand26FillPrefixesSystemRegistryEv(ptr noundef nonnull align 8 dereferenceable(1104) %3)
  br label %47

47:                                               ; preds = %46, %42
  br label %48

48:                                               ; preds = %47, %23
  call void @_ZN20cmFindPackageCommand21FillPrefixesUserGuessEv(ptr noundef nonnull align 8 dereferenceable(1104) %3)
  call void @_ZN12cmFindCommon17ComputeFinalPathsENS_11IgnorePathsE(ptr noundef nonnull align 8 dereferenceable(384) %3, i32 noundef 0)
  ret void
}